; Function Attrs: mustprogress uwtable
define void @_ZN6icu_756number29LocalizedNumberRangeFormatterC2EONS0_4impl15RangeMacroPropsERKNS_6LocaleE(ptr noundef nonnull align 8 dereferenceable(1216) %this, ptr noundef nonnull align 8 dereferenceable(1208) %macros, ptr noundef nonnull align 8 dereferenceable(217) %locale) unnamed_addr #1 align 2 personality ptr @__gxx_personality_v0 {
entry:
  %formatter1.i.i = getelementptr inbounds i8, ptr %this, i64 8
  tail call void @_ZN6icu_756number4impl10MacroPropsC2Ev(ptr noundef nonnull align 8 dereferenceable(472) %formatter1.i.i)
  %formatter2.i.i = getelementptr inbounds i8, ptr %this, i64 488
  invoke void @_ZN6icu_756number4impl10MacroPropsC2Ev(ptr noundef nonnull align 8 dereferenceable(472) %formatter2.i.i)
          to label %invoke.cont.i.i unwind label %lpad.i.i

invoke.cont.i.i:                                  ; preds = %entry
  %singleFormatter.i.i = getelementptr inbounds i8, ptr %this, i64 968
  store i8 1, ptr %singleFormatter.i.i, align 8
  %collapse.i.i = getelementptr inbounds i8, ptr %this, i64 972
  store i32 0, ptr %collapse.i.i, align 4
  %identityFallback.i.i = getelementptr inbounds i8, ptr %this, i64 976
  store i32 2, ptr %identityFallback.i.i, align 8
  %locale.i.i = getelementptr inbounds i8, ptr %this, i64 984
  invoke void @_ZN6icu_756LocaleC1Ev(ptr noundef nonnull align 8 dereferenceable(217) %locale.i.i)
          to label %_ZN6icu_756number28NumberRangeFormatterSettingsINS0_29LocalizedNumberRangeFormatterEEC2Ev.exit unwind label %lpad2.i.i

lpad.i.i:                                         ; preds = %entry
  %0 = landingpad { ptr, i32 }
          cleanup
  br label %ehcleanup.i.i

lpad2.i.i:                                        ; preds = %invoke.cont.i.i
  %1 = landingpad { ptr, i32 }
          cleanup
  tail call void @_ZN6icu_756number26UnlocalizedNumberFormatterD2Ev(ptr noundef nonnull align 8 dereferenceable(473) %formatter2.i.i) #10
  br label %ehcleanup.i.i

common.resume:                                    ; preds = %lpad, %ehcleanup.i.i
  %common.resume.op = phi { ptr, i32 } [ %.pn.i.i, %ehcleanup.i.i ], [ %2, %lpad ]
  resume { ptr, i32 } %common.resume.op

ehcleanup.i.i:                                    ; preds = %lpad2.i.i, %lpad.i.i
  %.pn.i.i = phi { ptr, i32 } [ %1, %lpad2.i.i ], [ %0, %lpad.i.i ]
  tail call void @_ZN6icu_756number26UnlocalizedNumberFormatterD2Ev(ptr noundef nonnull align 8 dereferenceable(473) %formatter1.i.i) #10
  br label %common.resume

_ZN6icu_756number28NumberRangeFormatterSettingsINS0_29LocalizedNumberRangeFormatterEEC2Ev.exit: ; preds = %invoke.cont.i.i
  %fAtomicFormatter = getelementptr inbounds i8, ptr %this, i64 1208
  store i64 0, ptr %fAtomicFormatter, align 8
  %formatter12.i = getelementptr inbounds i8, ptr %macros, i64 8
  %call.i = tail call noundef nonnull align 8 dereferenceable(473) ptr @_ZN6icu_756number26UnlocalizedNumberFormatteraSEOS1_(ptr noundef nonnull align 8 dereferenceable(473) %formatter1.i.i, ptr noundef nonnull align 8 dereferenceable(473) %formatter12.i) #10
  %formatter23.i = getelementptr inbounds i8, ptr %macros, i64 488
  %call4.i = tail call noundef nonnull align 8 dereferenceable(473) ptr @_ZN6icu_756number26UnlocalizedNumberFormatteraSEOS1_(ptr noundef nonnull align 8 dereferenceable(473) %formatter2.i.i, ptr noundef nonnull align 8 dereferenceable(473) %formatter23.i) #10
  %singleFormatter5.i = getelementptr inbounds i8, ptr %macros, i64 968
  tail call void @llvm.memcpy.p0.p0.i64(ptr noundef nonnull align 8 dereferenceable(12) %singleFormatter.i.i, ptr noundef nonnull align 8 dereferenceable(12) %singleFormatter5.i, i64 12, i1 false)
  %locale6.i = getelementptr inbounds i8, ptr %macros, i64 984
  %call7.i = tail call noundef nonnull align 8 dereferenceable(217) ptr @_ZN6icu_756LocaleaSEOS0_(ptr noundef nonnull align 8 dereferenceable(217) %locale.i.i, ptr noundef nonnull align 8 dereferenceable(217) %locale6.i) #10
  %call4 = invoke noundef nonnull align 8 dereferenceable(217) ptr @_ZN6icu_756LocaleaSERKS0_(ptr noundef nonnull align 8 dereferenceable(217) %locale.i.i, ptr noundef nonnull align 8 dereferenceable(217) %locale)
          to label %invoke.cont unwind label %lpad

invoke.cont:                                      ; preds = %_ZN6icu_756number28NumberRangeFormatterSettingsINS0_29LocalizedNumberRangeFormatterEEC2Ev.exit
  %locale1.i = getelementptr inbounds i8, ptr %this, i64 256
  %call.i23 = invoke noundef nonnull align 8 dereferenceable(217) ptr @_ZN6icu_756LocaleaSERKS0_(ptr noundef nonnull align 8 dereferenceable(217) %locale1.i, ptr noundef nonnull align 8 dereferenceable(217) %locale.i.i)
          to label %call.i2.noexc unwind label %lpad

call.i2.noexc:                                    ; preds = %invoke.cont
  %locale4.i = getelementptr inbounds i8, ptr %this, i64 736
  %call5.i4 = invoke noundef nonnull align 8 dereferenceable(217) ptr @_ZN6icu_756LocaleaSERKS0_(ptr noundef nonnull align 8 dereferenceable(217) %locale4.i, ptr noundef nonnull align 8 dereferenceable(217) %locale.i.i)
          to label %invoke.cont6 unwind label %lpad

invoke.cont6:                                     ; preds = %call.i2.noexc
  ret void

lpad:                                             ; preds = %call.i2.noexc, %invoke.cont, %_ZN6icu_756number28NumberRangeFormatterSettingsINS0_29LocalizedNumberRangeFormatterEEC2Ev.exit
  %2 = landingpad { ptr, i32 }
          cleanup
  tail call void @_ZN6icu_756number4impl15RangeMacroPropsD2Ev(ptr noundef nonnull align 8 dereferenceable(1208) %this) #10
  br label %common.resume
}